; ModuleID = '31/1522.c'
source_filename = "31/1522.c"
target datalayout = "e-m:e-p270:32:32-p271:32:32-p272:64:64-i64:64-f80:128-n8:16:32:64-S128"
target triple = "x86_64-pc-linux-gnu"

%struct.student = type { [100 x i8], %struct.student* }

@n = common dso_local global i32 0, align 4
@.str = private unnamed_addr constant [4 x i8] c"end\00", align 1

; Function Attrs: noinline nounwind uwtable
define dso_local void @main() #0 {
  %1 = alloca %struct.student*, align 8
  %2 = alloca %struct.student*, align 8
  %3 = alloca %struct.student*, align 8
  %4 = alloca i32, align 4
  %5 = alloca i32, align 4
  %6 = alloca %struct.student*, align 8
  store i32 0, i32* @n, align 4
  %7 = call noalias i8* @malloc(i64 100) #4
  %8 = bitcast i8* %7 to %struct.student*
  store %struct.student* %8, %struct.student** %3, align 8
  store %struct.student* %8, %struct.student** %2, align 8
  %9 = load %struct.student*, %struct.student** %2, align 8
  %10 = getelementptr inbounds %struct.student, %struct.student* %9, i32 0, i32 0
  %11 = getelementptr inbounds [100 x i8], [100 x i8]* %10, i64 0, i64 0
  %12 = call i32 (i8*, ...) bitcast (i32 (...)* @gets to i32 (i8*, ...)*)(i8* %11)
  store %struct.student* null, %struct.student** %1, align 8
  br label %13

13:                                               ; preds = %30, %0
  %14 = load %struct.student*, %struct.student** %2, align 8
  %15 = getelementptr inbounds %struct.student, %struct.student* %14, i32 0, i32 0
  %16 = getelementptr inbounds [100 x i8], [100 x i8]* %15, i64 0, i64 0
  %17 = call i32 @strcmp(i8* %16, i8* getelementptr inbounds ([4 x i8], [4 x i8]* @.str, i64 0, i64 0)) #5
  %18 = icmp ne i32 %17, 0
  br i1 %18, label %19, label %38

19:                                               ; preds = %13
  %20 = load i32, i32* @n, align 4
  %21 = add nsw i32 %20, 1
  store i32 %21, i32* @n, align 4
  %22 = load i32, i32* @n, align 4
  %23 = icmp eq i32 %22, 1
  br i1 %23, label %24, label %26

24:                                               ; preds = %19
  %25 = load %struct.student*, %struct.student** %2, align 8
  store %struct.student* %25, %struct.student** %1, align 8
  br label %30

26:                                               ; preds = %19
  %27 = load %struct.student*, %struct.student** %2, align 8
  %28 = load %struct.student*, %struct.student** %3, align 8
  %29 = getelementptr inbounds %struct.student, %struct.student* %28, i32 0, i32 1
  store %struct.student* %27, %struct.student** %29, align 8
  br label %30

30:                                               ; preds = %26, %24
  %31 = load %struct.student*, %struct.student** %2, align 8
  store %struct.student* %31, %struct.student** %3, align 8
  %32 = call noalias i8* @malloc(i64 100) #4
  %33 = bitcast i8* %32 to %struct.student*
  store %struct.student* %33, %struct.student** %2, align 8
  %34 = load %struct.student*, %struct.student** %2, align 8
  %35 = getelementptr inbounds %struct.student, %struct.student* %34, i32 0, i32 0
  %36 = getelementptr inbounds [100 x i8], [100 x i8]* %35, i64 0, i64 0
  %37 = call i32 (i8*, ...) bitcast (i32 (...)* @gets to i32 (i8*, ...)*)(i8* %36)
  br label %13

38:                                               ; preds = %13
  %39 = load %struct.student*, %struct.student** %3, align 8
  %40 = getelementptr inbounds %struct.student, %struct.student* %39, i32 0, i32 1
  store %struct.student* null, %struct.student** %40, align 8
  %41 = load %struct.student*, %struct.student** %1, align 8
  store %struct.student* %41, %struct.student** %6, align 8
  %42 = load i32, i32* @n, align 4
  %43 = sub nsw i32 %42, 1
  store i32 %43, i32* %5, align 4
  br label %44

44:                                               ; preds = %65, %38
  %45 = load i32, i32* %5, align 4
  %46 = icmp sgt i32 %45, -1
  br i1 %46, label %47, label %68

47:                                               ; preds = %44
  store i32 0, i32* %4, align 4
  br label %48

48:                                               ; preds = %56, %47
  %49 = load i32, i32* %4, align 4
  %50 = load i32, i32* %5, align 4
  %51 = icmp slt i32 %49, %50
  br i1 %51, label %52, label %59

52:                                               ; preds = %48
  %53 = load %struct.student*, %struct.student** %6, align 8
  %54 = getelementptr inbounds %struct.student, %struct.student* %53, i32 0, i32 1
  %55 = load %struct.student*, %struct.student** %54, align 8
  store %struct.student* %55, %struct.student** %6, align 8
  br label %56

56:                                               ; preds = %52
  %57 = load i32, i32* %4, align 4
  %58 = add nsw i32 %57, 1
  store i32 %58, i32* %4, align 4
  br label %48

59:                                               ; preds = %48
  %60 = load %struct.student*, %struct.student** %6, align 8
  %61 = getelementptr inbounds %struct.student, %struct.student* %60, i32 0, i32 0
  %62 = getelementptr inbounds [100 x i8], [100 x i8]* %61, i64 0, i64 0
  %63 = call i32 @puts(i8* %62)
  %64 = load %struct.student*, %struct.student** %1, align 8
  store %struct.student* %64, %struct.student** %6, align 8
  br label %65

65:                                               ; preds = %59
  %66 = load i32, i32* %5, align 4
  %67 = add nsw i32 %66, -1
  store i32 %67, i32* %5, align 4
  br label %44

68:                                               ; preds = %44
  ret void
}

; Function Attrs: nounwind
declare dso_local noalias i8* @malloc(i64) #1

declare dso_local i32 @gets(...) #2

; Function Attrs: nounwind readonly
declare dso_local i32 @strcmp(i8*, i8*) #3

declare dso_local i32 @puts(i8*) #2


!llvm.module.flags = !{!0}
!llvm.ident = !{!1}

!0 = !{i32 1, !"wchar_size", i32 4}
!1 = !{!"clang version 10.0.0-4ubuntu1 "}
